; ModuleID = 'source-C-CXX/29/1347.cpp'
source_filename = "source-C-CXX/29/1347.cpp"
target datalayout = "e-m:e-p270:32:32-p271:32:32-p272:64:64-i64:64-f80:128-n8:16:32:64-S128"
target triple = "x86_64-pc-linux-gnu"

%"class.std::ios_base::Init" = type { i8 }
%"class.std::basic_istream" = type { i32 (...)**, i64, %"class.std::basic_ios" }
%"class.std::basic_ios" = type { %"class.std::ios_base", %"class.std::basic_ostream"*, i8, i8, %"class.std::basic_streambuf"*, %"class.std::ctype"*, %"class.std::num_put"*, %"class.std::num_get"* }
%"class.std::ios_base" = type { i32 (...)**, i64, i64, i32, i32, i32, %"struct.std::ios_base::_Callback_list"*, %"struct.std::ios_base::_Words", [8 x %"struct.std::ios_base::_Words"], i32, %"struct.std::ios_base::_Words"*, %"class.std::locale" }
%"struct.std::ios_base::_Callback_list" = type { %"struct.std::ios_base::_Callback_list"*, void (i32, %"class.std::ios_base"*, i32)*, i32, i32 }
%"struct.std::ios_base::_Words" = type { i8*, i64 }
%"class.std::locale" = type { %"class.std::locale::_Impl"* }
%"class.std::locale::_Impl" = type { i32, %"class.std::locale::facet"**, i64, %"class.std::locale::facet"**, i8** }
%"class.std::locale::facet" = type <{ i32 (...)**, i32, [4 x i8] }>
%"class.std::basic_ostream" = type { i32 (...)**, %"class.std::basic_ios" }
%"class.std::basic_streambuf" = type { i32 (...)**, i8*, i8*, i8*, i8*, i8*, i8*, %"class.std::locale" }
%"class.std::ctype" = type <{ %"class.std::locale::facet.base", [4 x i8], %struct.__locale_struct*, i8, [7 x i8], i32*, i32*, i16*, i8, [256 x i8], [256 x i8], i8, [6 x i8] }>
%"class.std::locale::facet.base" = type <{ i32 (...)**, i32 }>
%struct.__locale_struct = type { [13 x %struct.__locale_data*], i16*, i32*, i32*, [13 x i8*] }
%struct.__locale_data = type opaque
%"class.std::num_put" = type { %"class.std::locale::facet.base", [4 x i8] }
%"class.std::num_get" = type { %"class.std::locale::facet.base", [4 x i8] }

@_ZStL8__ioinit = internal global %"class.std::ios_base::Init" zeroinitializer, align 1
@__dso_handle = external hidden global i8
@_ZSt3cin = external global %"class.std::basic_istream", align 8
@_ZSt4cout = external global %"class.std::basic_ostream", align 8
@llvm.global_ctors = appending global [1 x { i32, void ()*, i8* }] [{ i32, void ()*, i8* } { i32 65535, void ()* @_GLOBAL__sub_I_1347.cpp, i8* null }]

declare void @_ZNSt8ios_base4InitC1Ev(%"class.std::ios_base::Init"* nonnull align 1 dereferenceable(1)) unnamed_addr #0

; Function Attrs: nounwind
declare void @_ZNSt8ios_base4InitD1Ev(%"class.std::ios_base::Init"* nonnull align 1 dereferenceable(1)) unnamed_addr #1

; Function Attrs: nofree nounwind
declare i32 @__cxa_atexit(void (i8*)*, i8*, i8*) local_unnamed_addr #2

; Function Attrs: mustprogress nofree norecurse nosync nounwind readnone sspstrong uwtable willreturn
define dso_local i32 @_Z5judgei(i32 %0) local_unnamed_addr #3 {
  %2 = freeze i32 %0
  %3 = add i32 %2, -70
  %4 = icmp ult i32 %3, 10
  br i1 %4, label %10, label %5

5:                                                ; preds = %1
  switch i32 %2, label %6 [
    i32 97, label %10
    i32 87, label %10
    i32 7, label %10
    i32 67, label %10
    i32 57, label %10
    i32 47, label %10
    i32 37, label %10
    i32 27, label %10
    i32 17, label %10
  ]

6:                                                ; preds = %5
  %7 = srem i32 %2, 7
  %8 = icmp eq i32 %7, 0
  %9 = select i1 %8, i32 0, i32 %2
  br label %10

10:                                               ; preds = %5, %6, %1, %5, %5, %5, %5, %5, %5, %5, %5
  %11 = phi i32 [ 0, %5 ], [ 0, %5 ], [ 0, %5 ], [ 0, %5 ], [ 0, %5 ], [ 0, %5 ], [ 0, %5 ], [ 0, %5 ], [ 0, %5 ], [ 0, %1 ], [ %9, %6 ]
  ret i32 %11
}

; Function Attrs: mustprogress norecurse sspstrong uwtable
define dso_local i32 @main() local_unnamed_addr #4 {
  %1 = alloca i32, align 4
  %2 = bitcast i32* %1 to i8*
  call void @llvm.lifetime.start.p0i8(i64 4, i8* nonnull %2) #7
  %3 = call nonnull align 8 dereferenceable(16) %"class.std::basic_istream"* @_ZNSirsERi(%"class.std::basic_istream"* nonnull align 8 dereferenceable(16) @_ZSt3cin, i32* nonnull align 4 dereferenceable(4) %1)
  %4 = load i32, i32* %1, align 4, !tbaa !5
  %5 = icmp slt i32 %4, 1
  br i1 %5, label %30, label %6

6:                                                ; preds = %0, %23
  %7 = phi i32 [ %27, %23 ], [ 0, %0 ]
  %8 = phi i32 [ %28, %23 ], [ 1, %0 ]
  %9 = freeze i32 %8
  %10 = add i32 %9, -70
  %11 = icmp ult i32 %10, 10
  br i1 %11, label %23, label %12

12:                                               ; preds = %6
  switch i32 %9, label %13 [
    i32 97, label %17
    i32 87, label %17
    i32 7, label %17
    i32 67, label %17
    i32 57, label %17
    i32 47, label %17
    i32 37, label %17
    i32 27, label %17
    i32 17, label %17
  ]

13:                                               ; preds = %12
  %14 = srem i32 %9, 7
  %15 = icmp eq i32 %14, 0
  %16 = select i1 %15, i32 0, i32 %9
  br label %17

17:                                               ; preds = %12, %12, %12, %12, %12, %12, %12, %12, %12, %13
  %18 = phi i32 [ %16, %13 ], [ 0, %12 ], [ 0, %12 ], [ 0, %12 ], [ 0, %12 ], [ 0, %12 ], [ 0, %12 ], [ 0, %12 ], [ 0, %12 ], [ 0, %12 ]
  switch i32 %9, label %19 [
    i32 97, label %23
    i32 87, label %23
    i32 7, label %23
    i32 67, label %23
    i32 57, label %23
    i32 47, label %23
    i32 37, label %23
    i32 27, label %23
    i32 17, label %23
  ]

19:                                               ; preds = %17
  %20 = srem i32 %9, 7
  %21 = icmp eq i32 %20, 0
  %22 = select i1 %21, i32 0, i32 %9
  br label %23

23:                                               ; preds = %6, %17, %17, %17, %17, %17, %17, %17, %17, %17, %19
  %24 = phi i32 [ %18, %17 ], [ %18, %17 ], [ %18, %17 ], [ %18, %17 ], [ %18, %17 ], [ %18, %17 ], [ %18, %17 ], [ %18, %17 ], [ %18, %17 ], [ %18, %19 ], [ 0, %6 ]
  %25 = phi i32 [ 0, %17 ], [ 0, %17 ], [ 0, %17 ], [ 0, %17 ], [ 0, %17 ], [ 0, %17 ], [ 0, %17 ], [ 0, %17 ], [ 0, %17 ], [ %22, %19 ], [ 0, %6 ]
  %26 = mul nsw i32 %25, %24
  %27 = add nsw i32 %26, %7
  %28 = add nuw nsw i32 %9, 1
  %29 = icmp slt i32 %9, %4
  br i1 %29, label %6, label %30, !llvm.loop !9

30:                                               ; preds = %23, %0
  %31 = phi i32 [ 0, %0 ], [ %27, %23 ]
  %32 = call nonnull align 8 dereferenceable(8) %"class.std::basic_ostream"* @_ZNSolsEi(%"class.std::basic_ostream"* nonnull align 8 dereferenceable(8) @_ZSt4cout, i32 %31)
  call void @llvm.lifetime.end.p0i8(i64 4, i8* nonnull %2) #7
  ret i32 0
}

; Function Attrs: argmemonly mustprogress nofree nosync nounwind willreturn
declare void @llvm.lifetime.start.p0i8(i64 immarg, i8* nocapture) #5

declare nonnull align 8 dereferenceable(16) %"class.std::basic_istream"* @_ZNSirsERi(%"class.std::basic_istream"* nonnull align 8 dereferenceable(16), i32* nonnull align 4 dereferenceable(4)) local_unnamed_addr #0

declare nonnull align 8 dereferenceable(8) %"class.std::basic_ostream"* @_ZNSolsEi(%"class.std::basic_ostream"* nonnull align 8 dereferenceable(8), i32) local_unnamed_addr #0

; Function Attrs: argmemonly mustprogress nofree nosync nounwind willreturn
declare void @llvm.lifetime.end.p0i8(i64 immarg, i8* nocapture) #5

; Function Attrs: sspstrong uwtable
define internal void @_GLOBAL__sub_I_1347.cpp() #6 section ".text.startup" {
  tail call void @_ZNSt8ios_base4InitC1Ev(%"class.std::ios_base::Init"* nonnull align 1 dereferenceable(1) @_ZStL8__ioinit)
  %1 = tail call i32 @__cxa_atexit(void (i8*)* bitcast (void (%"class.std::ios_base::Init"*)* @_ZNSt8ios_base4InitD1Ev to void (i8*)*), i8* getelementptr inbounds (%"class.std::ios_base::Init", %"class.std::ios_base::Init"* @_ZStL8__ioinit, i64 0, i32 0), i8* nonnull @__dso_handle) #7
  ret void
}


!llvm.module.flags = !{!0, !1, !2, !3}
!llvm.ident = !{!4}

!0 = !{i32 1, !"wchar_size", i32 4}
!1 = !{i32 7, !"PIC Level", i32 2}
!2 = !{i32 7, !"PIE Level", i32 2}
!3 = !{i32 7, !"uwtable", i32 1}
!4 = !{!"clang version 13.0.0"}
!5 = !{!6, !6, i64 0}
!6 = !{!"int", !7, i64 0}
!7 = !{!"omnipotent char", !8, i64 0}
!8 = !{!"Simple C++ TBAA"}
!9 = distinct !{!9, !10}
!10 = !{!"llvm.loop.mustprogress"}
